target datalayout = "e-m:e-p270:32:32-p271:32:32-p272:64:64-i64:64-i128:128-f80:128-n8:16:32:64-S128"
target triple = "x86_64-unknown-linux-gnu"

%struct.__sigset_t = type { [16 x i64] }
%struct.CPUState = type { %struct.DeviceState, ptr, i32, i32, ptr, i32, i8, i8, ptr, i8, i8, i8, i8, i8, i8, i8, i8, i32, i32, i32, i32, i64, i64, i64, [1 x %struct.__jmp_buf_tag], %struct.QemuMutex, %struct.anon, ptr, i32, ptr, ptr, ptr, ptr, i32, i32, %union.anon, %union.anon.0, %union.anon.1, ptr, ptr, i64, i32, ptr, ptr, ptr, i32, i64, i32, %struct.QemuLockCnt, [1 x i64], ptr, i32, i32, i32, i32, i32, ptr, i8, i8, i64, i8, i8, ptr, [8 x i8], [0 x i8], %struct.CPUNegativeOffsetState }
%struct.DeviceState = type { %struct.Object, ptr, ptr, i8, i8, i64, ptr, i32, i8, ptr, %struct.NamedGPIOListHead, %struct.NamedClockListHead, %struct.BusStateHead, i32, i32, i32, %struct.ResettableState, ptr, %struct.MemReentrancyGuard }
%struct.Object = type { ptr, ptr, ptr, i32, ptr }
%struct.NamedGPIOListHead = type { ptr }
%struct.NamedClockListHead = type { ptr }
%struct.BusStateHead = type { ptr }
%struct.ResettableState = type { i32, i8, i8 }
%struct.MemReentrancyGuard = type { i8 }
%struct.__jmp_buf_tag = type { [8 x i64], i32, %struct.__sigset_t }
%struct.QemuMutex = type { %union.pthread_mutex_t, i8 }
%union.pthread_mutex_t = type { %struct.__pthread_mutex_s }
%struct.__pthread_mutex_s = type { i32, i32, i32, i32, i32, i16, i16, %struct.__pthread_internal_list }
%struct.__pthread_internal_list = type { ptr, ptr }
%struct.anon = type { ptr, ptr }
%union.anon = type { %struct.QTailQLink }
%struct.QTailQLink = type { ptr, ptr }
%union.anon.0 = type { %struct.QTailQLink }
%union.anon.1 = type { %struct.QTailQLink }
%struct.QemuLockCnt = type { i32 }
%struct.CPUNegativeOffsetState = type { %struct.CPUTLB, %union.IcountDecr, i8, [11 x i8] }
%struct.CPUTLB = type { %struct.CPUTLBCommon, [16 x %struct.CPUTLBDesc], [16 x %struct.CPUTLBDescFast] }
%struct.CPUTLBCommon = type { %struct.QemuSpin, i16, i64, i64, i64 }
%struct.QemuSpin = type { i32 }
%struct.CPUTLBDesc = type { i64, i64, i64, i64, i64, i64, [8 x %union.CPUTLBEntry], [8 x %struct.CPUTLBEntryFull], ptr }
%union.CPUTLBEntry = type { %struct.anon.2 }
%struct.anon.2 = type { i64, i64, i64, i64 }
%struct.CPUTLBEntryFull = type { i64, i64, %struct.MemTxAttrs, i8, i8, [3 x i8], %union.anon.3 }
%struct.MemTxAttrs = type { i32 }
%union.anon.3 = type { %struct.anon.4 }
%struct.anon.4 = type { i8, i8, i8 }
%struct.CPUTLBDescFast = type { i64, ptr }
%union.IcountDecr = type { i32 }
%struct.CPUClass = type { %struct.DeviceClass, ptr, ptr, ptr, ptr, ptr, ptr, ptr, ptr, ptr, ptr, ptr, ptr, ptr, ptr, ptr, ptr, ptr, ptr, ptr, ptr, ptr, i32, i32, i8 }
%struct.DeviceClass = type { %struct.ObjectClass, [1 x i64], ptr, ptr, ptr, i8, i8, ptr, ptr, ptr, ptr, ptr }
%struct.ObjectClass = type { ptr, ptr, [4 x ptr], [4 x ptr], ptr, ptr }
%struct.TCGCPUOps = type { ptr, ptr, ptr, ptr, ptr, ptr, ptr, ptr, ptr }

@.str.8 = private unnamed_addr constant [4 x i8] c"cpu\00", align 1
@.str.9 = private unnamed_addr constant [100 x i8] c"/home/dtcxzyw/WorkSpace/Projects/compilers/llvm-opt-benchmark/bench/qemu/qemu/include/hw/core/cpu.h\00", align 1
@__func__.CPU_GET_CLASS = private unnamed_addr constant [14 x i8] c"CPU_GET_CLASS\00", align 1

; Function Attrs: nounwind sspstrong uwtable
define internal ptr @CPU_GET_CLASS(ptr noundef %obj) #0 {
entry:
  %obj.addr = alloca ptr, align 8
  store ptr %obj, ptr %obj.addr, align 8
  %0 = load ptr, ptr %obj.addr, align 8
  %call = call ptr @object_get_class(ptr noundef %0)
  %call1 = call ptr @object_class_dynamic_cast_assert(ptr noundef %call, ptr noundef @.str.8, ptr noundef @.str.9, i32 noundef 64, ptr noundef @__func__.CPU_GET_CLASS)
  ret ptr %call1
}

; Function Attrs: noreturn nounwind sspstrong uwtable
define dso_local void @cpu_loop_exit_sigbus(ptr noundef %cpu, i64 noundef %addr, i32 noundef %access_type, i64 noundef %ra) #6 {
entry:
  %cpu.addr = alloca ptr, align 8
  %addr.addr = alloca i64, align 8
  %access_type.addr = alloca i32, align 4
  %ra.addr = alloca i64, align 8
  %tcg_ops = alloca ptr, align 8
  store ptr %cpu, ptr %cpu.addr, align 8
  store i64 %addr, ptr %addr.addr, align 8
  store i32 %access_type, ptr %access_type.addr, align 4
  store i64 %ra, ptr %ra.addr, align 8
  %0 = load ptr, ptr %cpu.addr, align 8
  %call = call ptr @CPU_GET_CLASS(ptr noundef %0)
  %tcg_ops1 = getelementptr inbounds %struct.CPUClass, ptr %call, i32 0, i32 20
  %1 = load ptr, ptr %tcg_ops1, align 8
  store ptr %1, ptr %tcg_ops, align 8
  %2 = load ptr, ptr %tcg_ops, align 8
  %record_sigbus = getelementptr inbounds %struct.TCGCPUOps, ptr %2, i32 0, i32 8
  %3 = load ptr, ptr %record_sigbus, align 8
  %tobool = icmp ne ptr %3, null
  br i1 %tobool, label %if.then, label %if.end

if.then:                                          ; preds = %entry
  %4 = load ptr, ptr %tcg_ops, align 8
  %record_sigbus2 = getelementptr inbounds %struct.TCGCPUOps, ptr %4, i32 0, i32 8
  %5 = load ptr, ptr %record_sigbus2, align 8
  %6 = load ptr, ptr %cpu.addr, align 8
  %7 = load i64, ptr %addr.addr, align 8
  %8 = load i32, ptr %access_type.addr, align 4
  %9 = load i64, ptr %ra.addr, align 8
  call void %5(ptr noundef %6, i64 noundef %7, i32 noundef %8, i64 noundef %9)
  br label %if.end

if.end:                                           ; preds = %if.then, %entry
  %10 = load i64, ptr %addr.addr, align 8
  call void @force_sig_fault(i32 noundef 7, i32 noundef 1, i64 noundef %10)
  %11 = load ptr, ptr %cpu.addr, align 8
  %exception_index = getelementptr inbounds %struct.CPUState, ptr %11, i32 0, i32 55
  store i32 65536, ptr %exception_index, align 8
  %12 = load ptr, ptr %cpu.addr, align 8
  %13 = load i64, ptr %ra.addr, align 8
  call void @cpu_loop_exit_restore(ptr noundef %12, i64 noundef %13) #10
  unreachable
}